target datalayout = "e-m:e-p270:32:32-p271:32:32-p272:64:64-i64:64-i128:128-f80:128-n8:16:32:64-S128"
target triple = "x86_64-pc-linux-gnu"

%"class.std::ios_base" = type { ptr, i64, i64, i32, i32, i32, ptr, %"struct.std::ios_base::_Words", [8 x %"struct.std::ios_base::_Words"], i32, ptr, %"class.std::locale" }
%"struct.std::ios_base::_Words" = type { ptr, i64 }
%"class.std::locale" = type { ptr }

@_ZN4cvc58internal7options7ioutilsL20s_iosFlattenHOChainsE = internal global i32 0, align 4
@_ZN4cvc58internal7options7ioutilsL24s_flattenHOChainsDefaultE = internal thread_local global i8 0, align 1

; Function Attrs: mustprogress uwtable
define linkonce_odr hidden noundef nonnull align 8 dereferenceable(8) ptr @_ZNSt8ios_base5iwordEi(ptr noundef nonnull align 8 dereferenceable(216) %0, i32 noundef %1) #7 comdat align 2 {
  %3 = alloca ptr, align 8
  %4 = alloca i32, align 4
  %5 = alloca ptr, align 8
  store ptr %0, ptr %3, align 8, !tbaa !11
  store i32 %1, ptr %4, align 4, !tbaa !3
  %6 = load ptr, ptr %3, align 8
  call void @llvm.lifetime.start.p0(i64 8, ptr %5) #3
  %7 = load i32, ptr %4, align 4, !tbaa !3
  %8 = getelementptr inbounds nuw %"class.std::ios_base", ptr %6, i32 0, i32 9
  %9 = load i32, ptr %8, align 8, !tbaa !34
  %10 = icmp ult i32 %7, %9
  br i1 %10, label %11, label %17

11:                                               ; preds = %2
  %12 = getelementptr inbounds nuw %"class.std::ios_base", ptr %6, i32 0, i32 10
  %13 = load ptr, ptr %12, align 8, !tbaa !43
  %14 = load i32, ptr %4, align 4, !tbaa !3
  %15 = sext i32 %14 to i64
  %16 = getelementptr inbounds %"struct.std::ios_base::_Words", ptr %13, i64 %15
  br label %20

17:                                               ; preds = %2
  %18 = load i32, ptr %4, align 4, !tbaa !3
  %19 = call noundef nonnull align 8 dereferenceable(16) ptr @_ZNSt8ios_base13_M_grow_wordsEib(ptr noundef nonnull align 8 dereferenceable(216) %6, i32 noundef %18, i1 noundef zeroext true)
  br label %20

20:                                               ; preds = %17, %11
  %21 = phi ptr [ %16, %11 ], [ %19, %17 ]
  store ptr %21, ptr %5, align 8, !tbaa !44
  %22 = load ptr, ptr %5, align 8, !tbaa !44
  %23 = getelementptr inbounds nuw %"struct.std::ios_base::_Words", ptr %22, i32 0, i32 1
  call void @llvm.lifetime.end.p0(i64 8, ptr %5) #3
  ret ptr %23
}

; Function Attrs: mustprogress uwtable
define internal noundef zeroext i1 @_ZN4cvc58internal7options7ioutils12_GLOBAL__N_17getDataIbEET_RSt8ios_baseiS5_(ptr noundef nonnull align 8 dereferenceable(216) %0, i32 noundef %1, i1 noundef zeroext %2) #7 {
  %4 = alloca i1, align 1
  %5 = alloca ptr, align 8
  %6 = alloca i32, align 4
  %7 = alloca i8, align 1
  %8 = alloca ptr, align 8
  %9 = alloca i32, align 4
  store ptr %0, ptr %5, align 8, !tbaa !11
  store i32 %1, ptr %6, align 4, !tbaa !3
  %10 = zext i1 %2 to i8
  store i8 %10, ptr %7, align 1, !tbaa !7
  call void @llvm.lifetime.start.p0(i64 8, ptr %8) #3
  %11 = load ptr, ptr %5, align 8, !tbaa !11
  %12 = load i32, ptr %6, align 4, !tbaa !3
  %13 = call noundef nonnull align 8 dereferenceable(8) ptr @_ZNSt8ios_base5iwordEi(ptr noundef nonnull align 8 dereferenceable(216) %11, i32 noundef %12)
  store ptr %13, ptr %8, align 8, !tbaa !16
  %14 = load ptr, ptr %8, align 8, !tbaa !16
  %15 = load i64, ptr %14, align 8, !tbaa !14
  %16 = icmp eq i64 %15, 0
  br i1 %16, label %17, label %20

17:                                               ; preds = %3
  %18 = load i8, ptr %7, align 1, !tbaa !7, !range !9, !noundef !10
  %19 = trunc i8 %18 to i1
  store i1 %19, ptr %4, align 1
  store i32 1, ptr %9, align 4
  br label %25

20:                                               ; preds = %3
  %21 = load ptr, ptr %8, align 8, !tbaa !16
  %22 = load i64, ptr %21, align 8, !tbaa !14
  %23 = sub nsw i64 %22, 1024
  %24 = icmp ne i64 %23, 0
  store i1 %24, ptr %4, align 1
  store i32 1, ptr %9, align 4
  br label %25

25:                                               ; preds = %20, %17
  call void @llvm.lifetime.end.p0(i64 8, ptr %8) #3
  %26 = load i1, ptr %4, align 1
  ret i1 %26
}

; Function Attrs: mustprogress uwtable
define hidden noundef zeroext i1 @_ZN4cvc58internal7options7ioutils18getFlattenHOChainsERSt8ios_base(ptr noundef nonnull align 8 dereferenceable(216) %0) #7 {
  %2 = alloca ptr, align 8
  store ptr %0, ptr %2, align 8, !tbaa !11
  %3 = load ptr, ptr %2, align 8, !tbaa !11
  %4 = load i32, ptr @_ZN4cvc58internal7options7ioutilsL20s_iosFlattenHOChainsE, align 4, !tbaa !3
  %5 = call align 1 ptr @llvm.threadlocal.address.p0(ptr align 1 @_ZN4cvc58internal7options7ioutilsL24s_flattenHOChainsDefaultE)
  %6 = load i8, ptr %5, align 1, !tbaa !7, !range !9, !noundef !10
  %7 = trunc i8 %6 to i1
  %8 = call noundef zeroext i1 @_ZN4cvc58internal7options7ioutils12_GLOBAL__N_17getDataIbEET_RSt8ios_baseiS5_(ptr noundef nonnull align 8 dereferenceable(216) %3, i32 noundef %4, i1 noundef zeroext %7)
  ret i1 %8
}